target datalayout = "e-m:e-p270:32:32-p271:32:32-p272:64:64-i64:64-i128:128-f80:128-n8:16:32:64-S128"
target triple = "x86_64-pc-linux-gnu"

%struct.job_step_stat_t = type { ptr, i32, i32, ptr }
%struct.job_step_pids_t = type { ptr, ptr, i32 }

@.str.2 = private unnamed_addr constant [22 x i8] c"slurm_protocol_pack.c\00", align 1
@__func__._unpack_job_step_stat = private unnamed_addr constant [22 x i8] c"_unpack_job_step_stat\00", align 1
@__func__._unpack_job_step_pids = private unnamed_addr constant [22 x i8] c"_unpack_job_step_pids\00", align 1

; Function Attrs: nounwind uwtable
define internal i32 @_unpack_job_step_pids(ptr noundef %0, ptr noundef %1, i16 noundef zeroext %2) #0 {
  %4 = alloca i32, align 4
  %5 = alloca ptr, align 8
  %6 = alloca ptr, align 8
  %7 = alloca i16, align 2
  %8 = alloca ptr, align 8
  %9 = alloca i32, align 4
  %10 = alloca i32, align 4
  store ptr %0, ptr %5, align 8
  store ptr %1, ptr %6, align 8
  store i16 %2, ptr %7, align 2
  call void @llvm.lifetime.start.p0(i64 8, ptr %8) #6
  %11 = call ptr @slurm_xcalloc(i64 noundef 1, i64 noundef 24, i1 noundef zeroext true, i1 noundef zeroext false, ptr noundef @.str.2, i32 noundef 9007, ptr noundef @__func__._unpack_job_step_pids)
  store ptr %11, ptr %8, align 8
  %12 = load ptr, ptr %8, align 8
  %13 = load ptr, ptr %5, align 8
  store ptr %12, ptr %13, align 8
  br label %14

14:                                               ; preds = %3
  call void @llvm.lifetime.start.p0(i64 4, ptr %9) #6
  %15 = load ptr, ptr %8, align 8
  %16 = getelementptr inbounds nuw %struct.job_step_pids_t, ptr %15, i32 0, i32 0
  %17 = load ptr, ptr %6, align 8
  %18 = call i32 @unpackstr_xmalloc_chooser(ptr noundef %16, ptr noundef %9, ptr noundef %17)
  %19 = icmp ne i32 %18, 0
  br i1 %19, label %20, label %21

20:                                               ; preds = %14
  store i32 4, ptr %10, align 4
  br label %22

21:                                               ; preds = %14
  store i32 0, ptr %10, align 4
  br label %22

22:                                               ; preds = %20, %21
  call void @llvm.lifetime.end.p0(i64 4, ptr %9) #6
  %23 = load i32, ptr %10, align 4
  switch i32 %23, label %42 [
    i32 0, label %24
    i32 4, label %39
  ]

24:                                               ; preds = %22
  br label %25

25:                                               ; preds = %24
  br label %26

26:                                               ; preds = %25
  br label %27

27:                                               ; preds = %26
  %28 = load ptr, ptr %8, align 8
  %29 = getelementptr inbounds nuw %struct.job_step_pids_t, ptr %28, i32 0, i32 1
  %30 = load ptr, ptr %8, align 8
  %31 = getelementptr inbounds nuw %struct.job_step_pids_t, ptr %30, i32 0, i32 2
  %32 = load ptr, ptr %6, align 8
  %33 = call i32 @unpack32_array(ptr noundef %29, ptr noundef %31, ptr noundef %32)
  %34 = icmp ne i32 %33, 0
  br i1 %34, label %35, label %36

35:                                               ; preds = %27
  br label %39

36:                                               ; preds = %27
  br label %37

37:                                               ; preds = %36
  br label %38

38:                                               ; preds = %37
  store i32 0, ptr %4, align 4
  store i32 1, ptr %10, align 4
  br label %42

39:                                               ; preds = %22, %35
  %40 = load ptr, ptr %8, align 8
  call void @slurm_free_job_step_pids(ptr noundef %40)
  %41 = load ptr, ptr %5, align 8
  store ptr null, ptr %41, align 8
  store i32 -1, ptr %4, align 4
  store i32 1, ptr %10, align 4
  br label %42

42:                                               ; preds = %39, %38, %22
  call void @llvm.lifetime.end.p0(i64 8, ptr %8) #6
  %43 = load i32, ptr %4, align 4
  ret i32 %43
}

; Function Attrs: nounwind uwtable
define internal i32 @_unpack_job_step_stat(ptr noundef %0, ptr noundef %1, i16 noundef zeroext %2) #0 {
  %4 = alloca i32, align 4
  %5 = alloca ptr, align 8
  %6 = alloca ptr, align 8
  %7 = alloca i16, align 2
  %8 = alloca ptr, align 8
  %9 = alloca i32, align 4
  %10 = alloca i32, align 4
  store ptr %0, ptr %5, align 8
  store ptr %1, ptr %6, align 8
  store i16 %2, ptr %7, align 2
  call void @llvm.lifetime.start.p0(i64 8, ptr %8) #6
  call void @llvm.lifetime.start.p0(i64 4, ptr %9) #6
  store i32 0, ptr %9, align 4
  %11 = call ptr @slurm_xcalloc(i64 noundef 1, i64 noundef 24, i1 noundef zeroext true, i1 noundef zeroext false, ptr noundef @.str.2, i32 noundef 8969, ptr noundef @__func__._unpack_job_step_stat)
  store ptr %11, ptr %8, align 8
  %12 = load ptr, ptr %8, align 8
  %13 = load ptr, ptr %5, align 8
  store ptr %12, ptr %13, align 8
  br label %14

14:                                               ; preds = %3
  %15 = load ptr, ptr %8, align 8
  %16 = getelementptr inbounds nuw %struct.job_step_stat_t, ptr %15, i32 0, i32 2
  %17 = load ptr, ptr %6, align 8
  %18 = call i32 @unpack32(ptr noundef %16, ptr noundef %17)
  %19 = icmp ne i32 %18, 0
  br i1 %19, label %20, label %21

20:                                               ; preds = %14
  br label %48

21:                                               ; preds = %14
  br label %22

22:                                               ; preds = %21
  br label %23

23:                                               ; preds = %22
  br label %24

24:                                               ; preds = %23
  %25 = load ptr, ptr %8, align 8
  %26 = getelementptr inbounds nuw %struct.job_step_stat_t, ptr %25, i32 0, i32 1
  %27 = load ptr, ptr %6, align 8
  %28 = call i32 @unpack32(ptr noundef %26, ptr noundef %27)
  %29 = icmp ne i32 %28, 0
  br i1 %29, label %30, label %31

30:                                               ; preds = %24
  br label %48

31:                                               ; preds = %24
  br label %32

32:                                               ; preds = %31
  br label %33

33:                                               ; preds = %32
  %34 = load ptr, ptr %8, align 8
  %35 = getelementptr inbounds nuw %struct.job_step_stat_t, ptr %34, i32 0, i32 0
  %36 = load i16, ptr %7, align 2
  %37 = load ptr, ptr %6, align 8
  %38 = call i32 @jobacctinfo_unpack(ptr noundef %35, i16 noundef zeroext %36, i16 noundef zeroext 0, ptr noundef %37, i1 noundef zeroext true)
  %39 = icmp ne i32 %38, 0
  br i1 %39, label %40, label %41

40:                                               ; preds = %33
  br label %48

41:                                               ; preds = %33
  %42 = load ptr, ptr %8, align 8
  %43 = getelementptr inbounds nuw %struct.job_step_stat_t, ptr %42, i32 0, i32 3
  %44 = load ptr, ptr %6, align 8
  %45 = load i16, ptr %7, align 2
  %46 = call i32 @_unpack_job_step_pids(ptr noundef %43, ptr noundef %44, i16 noundef zeroext %45)
  store i32 %46, ptr %9, align 4
  %47 = load i32, ptr %9, align 4
  store i32 %47, ptr %4, align 4
  store i32 1, ptr %10, align 4
  br label %51

48:                                               ; preds = %40, %30, %20
  %49 = load ptr, ptr %8, align 8
  call void @slurm_free_job_step_stat(ptr noundef %49)
  %50 = load ptr, ptr %5, align 8
  store ptr null, ptr %50, align 8
  store i32 -1, ptr %4, align 4
  store i32 1, ptr %10, align 4
  br label %51

51:                                               ; preds = %48, %41
  call void @llvm.lifetime.end.p0(i64 4, ptr %9) #6
  call void @llvm.lifetime.end.p0(i64 8, ptr %8) #6
  %52 = load i32, ptr %4, align 4
  ret i32 %52
}