; Function Attrs: nounwind uwtable
define internal fastcc range(i32 -1, 1) i32 @_unpack_job_step_stat(ptr noundef writeonly captures(none) initializes((0, 8)) %0, ptr noundef %1, i16 noundef zeroext %2) unnamed_addr #0 {
  %4 = alloca i32, align 4
  %5 = tail call ptr @slurm_xcalloc(i64 noundef 1, i64 noundef 24, i1 noundef zeroext true, i1 noundef zeroext false, ptr noundef nonnull @.str.2, i32 noundef 8969, ptr noundef nonnull @__func__._unpack_job_step_stat) #7
  store ptr %5, ptr %0, align 8
  %6 = getelementptr inbounds nuw i8, ptr %5, i64 12
  %7 = tail call i32 @unpack32(ptr noundef nonnull %6, ptr noundef %1) #7
  %.not = icmp eq i32 %7, 0
  br i1 %.not, label %8, label %22

8:                                                ; preds = %3
  %9 = getelementptr inbounds nuw i8, ptr %5, i64 8
  %10 = tail call i32 @unpack32(ptr noundef nonnull %9, ptr noundef %1) #7
  %.not15 = icmp eq i32 %10, 0
  br i1 %.not15, label %11, label %22

11:                                               ; preds = %8
  %12 = tail call i32 @jobacctinfo_unpack(ptr noundef nonnull %5, i16 noundef zeroext %2, i16 noundef zeroext 0, ptr noundef %1, i1 noundef zeroext true) #7
  %.not16 = icmp eq i32 %12, 0
  br i1 %.not16, label %13, label %22

13:                                               ; preds = %11
  %14 = getelementptr inbounds nuw i8, ptr %5, i64 16
  %15 = tail call ptr @slurm_xcalloc(i64 noundef 1, i64 noundef 24, i1 noundef zeroext true, i1 noundef zeroext false, ptr noundef nonnull @.str.2, i32 noundef 9007, ptr noundef nonnull @__func__._unpack_job_step_pids) #7
  store ptr %15, ptr %14, align 8
  call void @llvm.lifetime.start.p0(i64 4, ptr nonnull %4) #7
  %16 = call i32 @unpackstr_xmalloc_chooser(ptr noundef %15, ptr noundef nonnull %4, ptr noundef %1) #7
  %.not.i = icmp eq i32 %16, 0
  call void @llvm.lifetime.end.p0(i64 4, ptr nonnull %4) #7
  br i1 %.not.i, label %17, label %21

17:                                               ; preds = %13
  %18 = getelementptr inbounds nuw i8, ptr %15, i64 8
  %19 = getelementptr inbounds nuw i8, ptr %15, i64 16
  %20 = call i32 @unpack32_array(ptr noundef nonnull %18, ptr noundef nonnull %19, ptr noundef %1) #7
  %.not11.i = icmp eq i32 %20, 0
  br i1 %.not11.i, label %_unpack_job_step_pids.exit, label %21

21:                                               ; preds = %17, %13
  call void @slurm_free_job_step_pids(ptr noundef %15) #7
  store ptr null, ptr %14, align 8
  br label %_unpack_job_step_pids.exit

22:                                               ; preds = %11, %8, %3
  tail call void @slurm_free_job_step_stat(ptr noundef nonnull %5) #7
  store ptr null, ptr %0, align 8
  br label %_unpack_job_step_pids.exit

_unpack_job_step_pids.exit:                       ; preds = %21, %17, %22
  %.0 = phi i32 [ -1, %22 ], [ -1, %21 ], [ 0, %17 ]
  ret i32 %.0
}